(dp0
S'OriginalConfig'
p1
ccopy_reg
_reconstructor
p2
(cWMCore.Configuration
Configuration
p3
c__builtin__
object
p4
Ntp5
Rp6
(dp7
S'Site'
p8
g2
(cWMCore.Configuration
ConfigSection
p9
g4
Ntp10
Rp11
(dp12
S'_internal_skipChecks'
p13
I00
sS'_internal_documentation'
p14
S''
p15
sS'_internal_settings'
p16
c__builtin__
set
p17
((lp18
S'whitelist'
p19
aS'storageSite'
p20
atp21
Rp22
sS'_internal_name'
p23
g8
sS'_internal_docstrings'
p24
(dp25
sS'_internal_children'
p26
g17
((lp27
tp28
Rp29
sg20
S'T2_US_Nebraska'
p30
sS'_internal_parent_ref'
p31
Nsg19
(lp32
S'T2_US_Vanderbilt'
p33
asbsS'_internal_sections'
p34
(lp35
S'General'
p36
aS'JobType'
p37
aS'Data'
p38
ag8
aS'User'
p39
aS'Debug'
p40
asg39
g2
(g9
g4
Ntp41
Rp42
(dp43
g13
I00
sg14
g15
sg16
g17
((lp44
tp45
Rp46
sg23
g39
sg24
(dp47
sg26
g17
((lp48
tp49
Rp50
sg31
Nsbsg40
g2
(g9
g4
Ntp51
Rp52
(dp53
S'extraJDL'
p54
(lp55
S'+CMS_ALLOW_OVERFLOW=False'
p56
asg13
I00
sg14
g15
sg16
g17
((lp57
g54
atp58
Rp59
sg23
g40
sg24
(dp60
sg26
g17
((lp61
tp62
Rp63
sg31
Nsbsg36
g2
(g9
g4
Ntp64
Rp65
(dp66
S'transferLogs'
p67
I00
sg13
I00
sg14
g15
sg16
g17
((lp68
g67
aS'transferOutputs'
p69
aS'workArea'
p70
aS'requestName'
p71
atp72
Rp73
sg23
g36
sg24
(dp74
sg69
I01
sg26
g17
((lp75
tp76
Rp77
sg71
S'HeavyIon_Forest_pPb_8p16TeV_pgoing_ZB_PD2'
p78
sg31
Nsg70
S'HeavyIon_Forest_ZB2'
p79
sbsg38
g2
(g9
g4
Ntp80
Rp81
(dp82
S'inputDataset'
p83
S'/PAZeroBias2/PARun2016C-PromptReco-v1/AOD'
p84
sS'ignoreLocality'
p85
I01
sg13
I00
sS'unitsPerJob'
p86
I1
sg14
g15
sg16
g17
((lp87
g83
aS'outputDatasetTag'
p88
aS'publication'
p89
ag86
ag85
aS'inputDBS'
p90
aS'splitting'
p91
aS'outLFNDirBase'
p92
aS'runRange'
p93
aS'totalUnits'
p94
atp95
Rp96
sg92
S'/store/user/sarteaga/'
p97
sg23
g38
sg91
S'FileBased'
p98
sg24
(dp99
sg88
g78
sg26
g17
((lp100
tp101
Rp102
sg89
I00
sg90
S'global'
p103
sg31
Nsg93
S'286204,286303,286311'
p104
sg94
I443
sbsg37
g2
(g9
g4
Ntp105
Rp106
(dp107
S'inputFiles'
p108
(lp109
S'HeavyIonRPRcd_pPb2016_MB_offline.db'
p110
aS'offset_pPb2016_Pbp_MB.root'
p111
asg13
I00
sg14
g15
sg16
g17
((lp112
g108
aS'maxMemoryMB'
p113
aS'pluginName'
p114
aS'allowUndistributedCMSSW'
p115
aS'psetName'
p116
aS'maxJobRuntimeMin'
p117
atp118
Rp119
sg23
g37
sg24
(dp120
sg114
S'Analysis'
p121
sg26
g17
((lp122
tp123
Rp124
sg115
I01
sg116
S'runForestAOD_pPb_DATA_80X.py'
p125
sg31
Nsg117
I2700
sg113
I4000
sbsbsS'voGroup'
p126
g15
sS'Server'
p127
S'cmsweb.cern.ch'
p128
sS'instance'
p129
S'prod'
p130
sS'RequestName'
p131
V250413_093138:sarteaga_crab_HeavyIon_Forest_pPb_8p16TeV_pgoing_ZB_PD2
p132
sS'voRole'
p133
S'NULL'
p134
sS'Port'
p135
g15
s.