(dp0
S'OriginalConfig'
p1
ccopy_reg
_reconstructor
p2
(cWMCore.Configuration
Configuration
p3
c__builtin__
object
p4
Ntp5
Rp6
(dp7
S'Site'
p8
g2
(cWMCore.Configuration
ConfigSection
p9
g4
Ntp10
Rp11
(dp12
S'_internal_skipChecks'
p13
I00
sS'_internal_documentation'
p14
S''
p15
sS'_internal_settings'
p16
c__builtin__
set
p17
((lp18
S'storageSite'
p19
atp20
Rp21
sS'_internal_name'
p22
g8
sS'_internal_docstrings'
p23
(dp24
sS'_internal_children'
p25
g17
((lp26
tp27
Rp28
sg19
S'T2_US_Nebraska'
p29
sS'_internal_parent_ref'
p30
NsbsS'_internal_sections'
p31
(lp32
S'General'
p33
aS'JobType'
p34
aS'Data'
p35
ag8
aS'User'
p36
aS'Debug'
p37
asg36
g2
(g9
g4
Ntp38
Rp39
(dp40
g13
I00
sg14
g15
sg16
g17
((lp41
tp42
Rp43
sg22
g36
sg23
(dp44
sg25
g17
((lp45
tp46
Rp47
sg30
Nsbsg37
g2
(g9
g4
Ntp48
Rp49
(dp50
S'extraJDL'
p51
(lp52
S'+CMS_ALLOW_OVERFLOW=False'
p53
asg13
I00
sg14
g15
sg16
g17
((lp54
g51
atp55
Rp56
sg22
g37
sg23
(dp57
sg25
g17
((lp58
tp59
Rp60
sg30
Nsbsg33
g2
(g9
g4
Ntp61
Rp62
(dp63
S'transferLogs'
p64
I00
sg13
I00
sg14
g15
sg16
g17
((lp65
g64
aS'transferOutputs'
p66
aS'workArea'
p67
aS'requestName'
p68
atp69
Rp70
sg22
g33
sg23
(dp71
sg66
I01
sg25
g17
((lp72
tp73
Rp74
sg68
S'HeavyIon_Forest_pPb_8p16TeV_pgoing_ZB_PD6'
p75
sg30
Nsg67
S'HeavyIon_Forest_ZB6'
p76
sbsg35
g2
(g9
g4
Ntp77
Rp78
(dp79
S'inputDataset'
p80
S'/PAZeroBias6/PARun2016C-PromptReco-v1/AOD'
p81
sS'outputDatasetTag'
p82
g75
sg13
I00
sS'unitsPerJob'
p83
I1
sg14
g15
sg16
g17
((lp84
g80
ag82
aS'publication'
p85
ag83
aS'inputDBS'
p86
aS'splitting'
p87
aS'outLFNDirBase'
p88
aS'runRange'
p89
aS'totalUnits'
p90
atp91
Rp92
sg88
S'/store/user/sarteaga/'
p93
sg22
g35
sg87
S'FileBased'
p94
sg23
(dp95
sg25
g17
((lp96
tp97
Rp98
sg85
I00
sg86
S'global'
p99
sg30
Nsg89
S'286204,286303,286311'
p100
sg90
I443
sbsg34
g2
(g9
g4
Ntp101
Rp102
(dp103
S'numCores'
p104
I1
sg13
I00
sg14
g15
sg16
g17
((lp105
g104
aS'maxMemoryMB'
p106
aS'pluginName'
p107
aS'allowUndistributedCMSSW'
p108
aS'psetName'
p109
aS'inputFiles'
p110
atp111
Rp112
sg22
g34
sg23
(dp113
sg107
S'Analysis'
p114
sg25
g17
((lp115
tp116
Rp117
sg108
I01
sg109
S'runForestAOD_pPb_DATA_80X.py'
p118
sg30
Nsg110
(lp119
S'HeavyIonRPRcd_pPb2016_MB_offline.db'
p120
aS'offset_pPb2016_Pbp_MB.root'
p121
asg106
I2500
sbsbsS'voGroup'
p122
g15
sS'Server'
p123
S'cmsweb.cern.ch'
p124
sS'instance'
p125
S'prod'
p126
sS'RequestName'
p127
V250414_190728:sarteaga_crab_HeavyIon_Forest_pPb_8p16TeV_pgoing_ZB_PD6
p128
sS'voRole'
p129
S'NULL'
p130
sS'Port'
p131
g15
s.